target datalayout = "e-m:e-p270:32:32-p271:32:32-p272:64:64-i64:64-i128:128-f80:128-n8:16:32:64-S128"
target triple = "x86_64-pc-linux-gnu"

%struct.DdManager = type { %struct.DdNode, ptr, ptr, ptr, ptr, ptr, ptr, ptr, i32, i32, double, double, double, i32, i32, i32, i32, i32, i32, ptr, ptr, %struct.DdSubtable, i32, i32, i32, i32, i32, i32, i32, double, i32, i32, i32, ptr, i64, double, i32, ptr, ptr, ptr, ptr, ptr, ptr, ptr, i32, ptr, ptr, ptr, ptr, ptr, ptr, i32, i32, i32, double, i32, i32, i32, i32, double, double, i32, i32, i32, i32, i32, i32, i32, i32, i32, ptr, ptr, i32, i32, i32, i32, i32, i32, ptr, ptr, ptr, ptr, ptr, ptr, ptr, ptr, i32, i64, i64, i64, i32, i64, i64, double, double, double, double, double, double, i32, ptr, ptr, i64 }
%struct.DdNode = type { i32, i32, ptr, %union.anon, i64 }
%union.anon = type { %struct.DdChildren }
%struct.DdChildren = type { ptr, ptr }
%struct.DdSubtable = type { ptr, i32, i32, i32, i32, i32, i32, i32, i32, i32, i32, i32 }

; Function Attrs: nounwind uwtable
define ptr @extraZddCombination(ptr noundef %0, ptr noundef %1, i32 noundef %2) #0 {
  %4 = alloca ptr, align 8
  %5 = alloca ptr, align 8
  %6 = alloca ptr, align 8
  %7 = alloca i32, align 4
  %8 = alloca i32, align 4
  %9 = alloca i32, align 4
  %10 = alloca ptr, align 8
  %11 = alloca ptr, align 8
  %12 = alloca i32, align 4
  store ptr %0, ptr %5, align 8, !tbaa !3
  store ptr %1, ptr %6, align 8, !tbaa !10
  store i32 %2, ptr %7, align 4, !tbaa !37
  call void @llvm.lifetime.start.p0(i64 4, ptr %8) #10
  call void @llvm.lifetime.start.p0(i64 4, ptr %9) #10
  call void @llvm.lifetime.start.p0(i64 8, ptr %10) #10
  call void @llvm.lifetime.start.p0(i64 8, ptr %11) #10
  %13 = load ptr, ptr %5, align 8, !tbaa !3
  %14 = getelementptr inbounds nuw %struct.DdManager, ptr %13, i32 0, i32 1
  %15 = load ptr, ptr %14, align 8, !tbaa !41
  store ptr %15, ptr %10, align 8, !tbaa !8
  %16 = load ptr, ptr %10, align 8, !tbaa !8
  %17 = ptrtoint ptr %16 to i64
  %18 = and i64 %17, -2
  %19 = inttoptr i64 %18 to ptr
  %20 = getelementptr inbounds nuw %struct.DdNode, ptr %19, i32 0, i32 1
  %21 = load i32, ptr %20, align 4, !tbaa !34
  %22 = add i32 %21, 1
  store i32 %22, ptr %20, align 4, !tbaa !34
  %23 = load i32, ptr %7, align 4, !tbaa !37
  %24 = sub nsw i32 %23, 1
  store i32 %24, ptr %8, align 4, !tbaa !37
  br label %25

25:                                               ; preds = %81, %3
  %26 = load i32, ptr %8, align 4, !tbaa !37
  %27 = icmp sge i32 %26, 0
  br i1 %27, label %28, label %84

28:                                               ; preds = %25
  %29 = load i32, ptr %8, align 4, !tbaa !37
  %30 = load ptr, ptr %5, align 8, !tbaa !3
  %31 = getelementptr inbounds nuw %struct.DdManager, ptr %30, i32 0, i32 16
  %32 = load i32, ptr %31, align 4, !tbaa !58
  %33 = icmp sge i32 %29, %32
  br i1 %33, label %34, label %36

34:                                               ; preds = %28
  %35 = load i32, ptr %8, align 4, !tbaa !37
  br label %44

36:                                               ; preds = %28
  %37 = load ptr, ptr %5, align 8, !tbaa !3
  %38 = getelementptr inbounds nuw %struct.DdManager, ptr %37, i32 0, i32 40
  %39 = load ptr, ptr %38, align 8, !tbaa !99
  %40 = load i32, ptr %8, align 4, !tbaa !37
  %41 = sext i32 %40 to i64
  %42 = getelementptr inbounds i32, ptr %39, i64 %41
  %43 = load i32, ptr %42, align 4, !tbaa !37
  br label %44

44:                                               ; preds = %36, %34
  %45 = phi i32 [ %35, %34 ], [ %43, %36 ]
  store i32 %45, ptr %9, align 4, !tbaa !37
  %46 = load ptr, ptr %6, align 8, !tbaa !10
  %47 = load i32, ptr %9, align 4, !tbaa !37
  %48 = sext i32 %47 to i64
  %49 = getelementptr inbounds i32, ptr %46, i64 %48
  %50 = load i32, ptr %49, align 4, !tbaa !37
  %51 = icmp eq i32 %50, 1
  br i1 %51, label %52, label %80

52:                                               ; preds = %44
  %53 = load ptr, ptr %5, align 8, !tbaa !3
  %54 = load i32, ptr %9, align 4, !tbaa !37
  %55 = load ptr, ptr %10, align 8, !tbaa !8
  store ptr %55, ptr %11, align 8, !tbaa !8
  %56 = load ptr, ptr %5, align 8, !tbaa !3
  %57 = getelementptr inbounds nuw %struct.DdManager, ptr %56, i32 0, i32 2
  %58 = load ptr, ptr %57, align 8, !tbaa !76
  %59 = call ptr @cuddZddGetNode(ptr noundef %53, i32 noundef %54, ptr noundef %55, ptr noundef %58)
  store ptr %59, ptr %10, align 8, !tbaa !8
  %60 = load ptr, ptr %10, align 8, !tbaa !8
  %61 = icmp eq ptr %60, null
  br i1 %61, label %62, label %65

62:                                               ; preds = %52
  %63 = load ptr, ptr %5, align 8, !tbaa !3
  %64 = load ptr, ptr %11, align 8, !tbaa !8
  call void @Cudd_RecursiveDerefZdd(ptr noundef %63, ptr noundef %64)
  store ptr null, ptr %4, align 8
  store i32 1, ptr %12, align 4
  br label %93

65:                                               ; preds = %52
  %66 = load ptr, ptr %10, align 8, !tbaa !8
  %67 = ptrtoint ptr %66 to i64
  %68 = and i64 %67, -2
  %69 = inttoptr i64 %68 to ptr
  %70 = getelementptr inbounds nuw %struct.DdNode, ptr %69, i32 0, i32 1
  %71 = load i32, ptr %70, align 4, !tbaa !34
  %72 = add i32 %71, 1
  store i32 %72, ptr %70, align 4, !tbaa !34
  %73 = load ptr, ptr %11, align 8, !tbaa !8
  %74 = ptrtoint ptr %73 to i64
  %75 = and i64 %74, -2
  %76 = inttoptr i64 %75 to ptr
  %77 = getelementptr inbounds nuw %struct.DdNode, ptr %76, i32 0, i32 1
  %78 = load i32, ptr %77, align 4, !tbaa !34
  %79 = add i32 %78, -1
  store i32 %79, ptr %77, align 4, !tbaa !34
  br label %80

80:                                               ; preds = %65, %44
  br label %81

81:                                               ; preds = %80
  %82 = load i32, ptr %8, align 4, !tbaa !37
  %83 = add nsw i32 %82, -1
  store i32 %83, ptr %8, align 4, !tbaa !37
  br label %25, !llvm.loop !100

84:                                               ; preds = %25
  %85 = load ptr, ptr %10, align 8, !tbaa !8
  %86 = ptrtoint ptr %85 to i64
  %87 = and i64 %86, -2
  %88 = inttoptr i64 %87 to ptr
  %89 = getelementptr inbounds nuw %struct.DdNode, ptr %88, i32 0, i32 1
  %90 = load i32, ptr %89, align 4, !tbaa !34
  %91 = add i32 %90, -1
  store i32 %91, ptr %89, align 4, !tbaa !34
  %92 = load ptr, ptr %10, align 8, !tbaa !8
  store ptr %92, ptr %4, align 8
  store i32 1, ptr %12, align 4
  br label %93

93:                                               ; preds = %84, %62
  call void @llvm.lifetime.end.p0(i64 8, ptr %11) #10
  call void @llvm.lifetime.end.p0(i64 8, ptr %10) #10
  call void @llvm.lifetime.end.p0(i64 4, ptr %9) #10
  call void @llvm.lifetime.end.p0(i64 4, ptr %8) #10
  %94 = load ptr, ptr %4, align 8
  ret ptr %94
}

; Function Attrs: nounwind uwtable
define ptr @Extra_zddCombination(ptr noundef %0, ptr noundef %1, i32 noundef %2) #0 {
  %4 = alloca ptr, align 8
  %5 = alloca ptr, align 8
  %6 = alloca i32, align 4
  %7 = alloca ptr, align 8
  store ptr %0, ptr %4, align 8, !tbaa !3
  store ptr %1, ptr %5, align 8, !tbaa !10
  store i32 %2, ptr %6, align 4, !tbaa !37
  call void @llvm.lifetime.start.p0(i64 8, ptr %7) #10
  br label %8

8:                                                ; preds = %15, %3
  %9 = load ptr, ptr %4, align 8, !tbaa !3
  %10 = getelementptr inbounds nuw %struct.DdManager, ptr %9, i32 0, i32 55
  store i32 0, ptr %10, align 8, !tbaa !12
  %11 = load ptr, ptr %4, align 8, !tbaa !3
  %12 = load ptr, ptr %5, align 8, !tbaa !10
  %13 = load i32, ptr %6, align 4, !tbaa !37
  %14 = call ptr @extraZddCombination(ptr noundef %11, ptr noundef %12, i32 noundef %13)
  store ptr %14, ptr %7, align 8, !tbaa !8
  br label %15

15:                                               ; preds = %8
  %16 = load ptr, ptr %4, align 8, !tbaa !3
  %17 = getelementptr inbounds nuw %struct.DdManager, ptr %16, i32 0, i32 55
  %18 = load i32, ptr %17, align 8, !tbaa !12
  %19 = icmp eq i32 %18, 1
  br i1 %19, label %8, label %20, !llvm.loop !101

20:                                               ; preds = %15
  %21 = load ptr, ptr %7, align 8, !tbaa !8
  call void @llvm.lifetime.end.p0(i64 8, ptr %7) #10
  ret ptr %21
}