; Function Attrs: nounwind uwtable
define ptr @Extra_zddCombination(ptr noundef initializes((448, 452)) %0, ptr noundef readonly captures(none) %1, i32 noundef %2) local_unnamed_addr #0 {
  %4 = getelementptr inbounds nuw i8, ptr %0, i64 448
  %5 = getelementptr inbounds nuw i8, ptr %0, i64 40
  %6 = icmp sgt i32 %2, 0
  %7 = getelementptr inbounds nuw i8, ptr %0, i64 140
  %8 = getelementptr inbounds nuw i8, ptr %0, i64 336
  %9 = getelementptr inbounds nuw i8, ptr %0, i64 48
  %10 = zext nneg i32 %2 to i64
  br i1 %6, label %.lr.ph.i.us, label %._crit_edge.i

.lr.ph.i.us:                                      ; preds = %3, %extraZddCombination.exit.us
  store i32 0, ptr %4, align 8, !tbaa !3
  %11 = load ptr, ptr %5, align 8, !tbaa !34
  %12 = ptrtoint ptr %11 to i64
  %13 = and i64 %12, -2
  %14 = inttoptr i64 %13 to ptr
  %15 = getelementptr inbounds nuw i8, ptr %14, i64 4
  %16 = load i32, ptr %15, align 4, !tbaa !24
  %17 = add i32 %16, 1
  store i32 %17, ptr %15, align 4, !tbaa !24
  br label %18

18:                                               ; preds = %49, %.lr.ph.i.us
  %indvars.iv.i.us = phi i64 [ %10, %.lr.ph.i.us ], [ %indvars.iv.next.i.us, %49 ]
  %.02329.i.us = phi ptr [ %11, %.lr.ph.i.us ], [ %.1.i.us, %49 ]
  %indvars.iv.next.i.us = add nsw i64 %indvars.iv.i.us, -1
  %19 = load i32, ptr %7, align 4, !tbaa !49
  %20 = sext i32 %19 to i64
  %.not.not.i.us = icmp sgt i64 %indvars.iv.i.us, %20
  %21 = trunc nuw nsw i64 %indvars.iv.next.i.us to i32
  br i1 %.not.not.i.us, label %26, label %22

22:                                               ; preds = %18
  %23 = load ptr, ptr %8, align 8, !tbaa !84
  %24 = getelementptr inbounds nuw i32, ptr %23, i64 %indvars.iv.next.i.us
  %25 = load i32, ptr %24, align 4, !tbaa !31
  br label %26

26:                                               ; preds = %22, %18
  %27 = phi i32 [ %25, %22 ], [ %21, %18 ]
  %28 = sext i32 %27 to i64
  %29 = getelementptr inbounds i32, ptr %1, i64 %28
  %30 = load i32, ptr %29, align 4, !tbaa !31
  %31 = icmp eq i32 %30, 1
  br i1 %31, label %32, label %49

32:                                               ; preds = %26
  %33 = load ptr, ptr %9, align 8, !tbaa !63
  %34 = tail call ptr @cuddZddGetNode(ptr noundef nonnull %0, i32 noundef %27, ptr noundef %.02329.i.us, ptr noundef %33) #19
  %35 = icmp eq ptr %34, null
  br i1 %35, label %54, label %36

36:                                               ; preds = %32
  %37 = ptrtoint ptr %34 to i64
  %38 = and i64 %37, -2
  %39 = inttoptr i64 %38 to ptr
  %40 = getelementptr inbounds nuw i8, ptr %39, i64 4
  %41 = load i32, ptr %40, align 4, !tbaa !24
  %42 = add i32 %41, 1
  store i32 %42, ptr %40, align 4, !tbaa !24
  %43 = ptrtoint ptr %.02329.i.us to i64
  %44 = and i64 %43, -2
  %45 = inttoptr i64 %44 to ptr
  %46 = getelementptr inbounds nuw i8, ptr %45, i64 4
  %47 = load i32, ptr %46, align 4, !tbaa !24
  %48 = add i32 %47, -1
  store i32 %48, ptr %46, align 4, !tbaa !24
  br label %49

49:                                               ; preds = %36, %26
  %.1.i.us = phi ptr [ %34, %36 ], [ %.02329.i.us, %26 ]
  %50 = icmp samesign ugt i64 %indvars.iv.i.us, 1
  br i1 %50, label %18, label %._crit_edge.loopexit.i.us, !llvm.loop !85

._crit_edge.loopexit.i.us:                        ; preds = %49
  %.pre.i.us = ptrtoint ptr %.1.i.us to i64
  %.pre33.i.us = and i64 %.pre.i.us, -2
  %.pre35.i.us = inttoptr i64 %.pre33.i.us to ptr
  %51 = getelementptr inbounds nuw i8, ptr %.pre35.i.us, i64 4
  %52 = load i32, ptr %51, align 4, !tbaa !24
  %53 = add i32 %52, -1
  store i32 %53, ptr %51, align 4, !tbaa !24
  br label %extraZddCombination.exit.us

54:                                               ; preds = %32
  tail call void @Cudd_RecursiveDerefZdd(ptr noundef nonnull %0, ptr noundef %.02329.i.us) #19
  br label %extraZddCombination.exit.us

extraZddCombination.exit.us:                      ; preds = %54, %._crit_edge.loopexit.i.us
  %.0.i.us = phi ptr [ null, %54 ], [ %.1.i.us, %._crit_edge.loopexit.i.us ]
  %55 = load i32, ptr %4, align 8, !tbaa !3
  %56 = icmp eq i32 %55, 1
  br i1 %56, label %.lr.ph.i.us, label %.split7.us, !llvm.loop !86

._crit_edge.i:                                    ; preds = %3
  %57 = load ptr, ptr %5, align 8, !tbaa !34
  store i32 0, ptr %4, align 8, !tbaa !3
  br label %.split7.us

.split7.us:                                       ; preds = %extraZddCombination.exit.us, %._crit_edge.i
  %.us-phi = phi ptr [ %57, %._crit_edge.i ], [ %.0.i.us, %extraZddCombination.exit.us ]
  ret ptr %.us-phi
}